target datalayout = "e-m:e-p270:32:32-p271:32:32-p272:64:64-i64:64-i128:128-f80:128-n8:16:32:64-S128"
target triple = "x86_64-unknown-linux-gnu"

%"class.openvdb::v11_0::points::GroupHandle" = type <{ ptr, i8, [7 x i8] }>

; Function Attrs: mustprogress uwtable
define linkonce_odr void @_ZN7openvdb5v11_06points19TypedAttributeArrayIhNS1_10GroupCodecEE3setIiEEvjRKT_(ptr noundef nonnull align 8 dereferenceable(40) %this, i32 noundef %n, ptr noundef nonnull align 4 dereferenceable(4) %val) #4 comdat align 2 {
entry:
  %this.addr = alloca ptr, align 8
  %n.addr = alloca i32, align 4
  %val.addr = alloca ptr, align 8
  %ref.tmp = alloca i8, align 1
  store ptr %this, ptr %this.addr, align 8
  store i32 %n, ptr %n.addr, align 4
  store ptr %val, ptr %val.addr, align 8
  %this1 = load ptr, ptr %this.addr, align 8
  %0 = load i32, ptr %n.addr, align 4
  %1 = load ptr, ptr %val.addr, align 8
  %2 = load i32, ptr %1, align 4
  %conv = trunc i32 %2 to i8
  store i8 %conv, ptr %ref.tmp, align 1
  call void @_ZN7openvdb5v11_06points19TypedAttributeArrayIhNS1_10GroupCodecEE3setEjRKh(ptr noundef nonnull align 8 dereferenceable(40) %this1, i32 noundef %0, ptr noundef nonnull align 1 dereferenceable(1) %ref.tmp)
  ret void
}

; Function Attrs: mustprogress uwtable
define void @_ZN7openvdb5v11_06points16GroupWriteHandle3setEjb(ptr noundef nonnull align 8 dereferenceable(9) %this, i32 noundef %n, i1 noundef zeroext %on) #4 align 2 {
entry:
  %this.addr = alloca ptr, align 8
  %n.addr = alloca i32, align 4
  %on.addr = alloca i8, align 1
  %value = alloca ptr, align 8
  %ref.tmp = alloca i8, align 1
  %array = alloca ptr, align 8
  %ref.tmp3 = alloca i32, align 4
  %ref.tmp5 = alloca i32, align 4
  store ptr %this, ptr %this.addr, align 8
  store i32 %n, ptr %n.addr, align 4
  %frombool = zext i1 %on to i8
  store i8 %frombool, ptr %on.addr, align 1
  %this1 = load ptr, ptr %this.addr, align 8
  %mArray = getelementptr inbounds %"class.openvdb::v11_0::points::GroupHandle", ptr %this1, i32 0, i32 0
  %0 = load ptr, ptr %mArray, align 8
  %1 = load i32, ptr %n.addr, align 4
  %call = call noundef zeroext i8 @_ZNK7openvdb5v11_06points19TypedAttributeArrayIhNS1_10GroupCodecEE3getEj(ptr noundef nonnull align 8 dereferenceable(40) %0, i32 noundef %1)
  store i8 %call, ptr %ref.tmp, align 1
  store ptr %ref.tmp, ptr %value, align 8
  %mArray2 = getelementptr inbounds %"class.openvdb::v11_0::points::GroupHandle", ptr %this1, i32 0, i32 0
  %2 = load ptr, ptr %mArray2, align 8
  store ptr %2, ptr %array, align 8
  %3 = load i8, ptr %on.addr, align 1
  %tobool = trunc i8 %3 to i1
  br i1 %tobool, label %if.then, label %if.else

if.then:                                          ; preds = %entry
  %4 = load ptr, ptr %array, align 8
  %5 = load i32, ptr %n.addr, align 4
  %6 = load ptr, ptr %value, align 8
  %7 = load i8, ptr %6, align 1
  %conv = zext i8 %7 to i32
  %mBitMask = getelementptr inbounds %"class.openvdb::v11_0::points::GroupHandle", ptr %this1, i32 0, i32 1
  %8 = load i8, ptr %mBitMask, align 8
  %conv4 = zext i8 %8 to i32
  %or = or i32 %conv, %conv4
  store i32 %or, ptr %ref.tmp3, align 4
  call void @_ZN7openvdb5v11_06points19TypedAttributeArrayIhNS1_10GroupCodecEE3setIiEEvjRKT_(ptr noundef nonnull align 8 dereferenceable(40) %4, i32 noundef %5, ptr noundef nonnull align 4 dereferenceable(4) %ref.tmp3)
  br label %if.end

if.else:                                          ; preds = %entry
  %9 = load ptr, ptr %array, align 8
  %10 = load i32, ptr %n.addr, align 4
  %11 = load ptr, ptr %value, align 8
  %12 = load i8, ptr %11, align 1
  %conv6 = zext i8 %12 to i32
  %mBitMask7 = getelementptr inbounds %"class.openvdb::v11_0::points::GroupHandle", ptr %this1, i32 0, i32 1
  %13 = load i8, ptr %mBitMask7, align 8
  %conv8 = zext i8 %13 to i32
  %not = xor i32 %conv8, -1
  %and = and i32 %conv6, %not
  store i32 %and, ptr %ref.tmp5, align 4
  call void @_ZN7openvdb5v11_06points19TypedAttributeArrayIhNS1_10GroupCodecEE3setIiEEvjRKT_(ptr noundef nonnull align 8 dereferenceable(40) %9, i32 noundef %10, ptr noundef nonnull align 4 dereferenceable(4) %ref.tmp5)
  br label %if.end

if.end:                                           ; preds = %if.else, %if.then
  ret void
}