; Function Attrs: mustprogress uwtable
define void @_ZN7openvdb5v11_06points16GroupWriteHandle3setEjb(ptr nocapture noundef nonnull readonly align 8 dereferenceable(9) %this, i32 noundef %n, i1 noundef zeroext %on) local_unnamed_addr #3 align 2 {
entry:
  %ref.tmp.i7 = alloca i8, align 1
  %ref.tmp.i = alloca i8, align 1
  %0 = load ptr, ptr %this, align 8
  %call = tail call noundef zeroext i8 @_ZNK7openvdb5v11_06points19TypedAttributeArrayIhNS1_10GroupCodecEE3getEj(ptr noundef nonnull align 8 dereferenceable(40) %0, i32 noundef %n)
  %1 = load ptr, ptr %this, align 8
  %mBitMask = getelementptr inbounds i8, ptr %this, i64 8
  %2 = load i8, ptr %mBitMask, align 8
  br i1 %on, label %if.then, label %if.else

if.then:                                          ; preds = %entry
  %or6 = or i8 %2, %call
  call void @llvm.lifetime.start.p0(i64 1, ptr nonnull %ref.tmp.i)
  store i8 %or6, ptr %ref.tmp.i, align 1
  call void @_ZN7openvdb5v11_06points19TypedAttributeArrayIhNS1_10GroupCodecEE3setEjRKh(ptr noundef nonnull align 8 dereferenceable(40) %1, i32 noundef %n, ptr noundef nonnull align 1 dereferenceable(1) %ref.tmp.i)
  call void @llvm.lifetime.end.p0(i64 1, ptr nonnull %ref.tmp.i)
  br label %if.end

if.else:                                          ; preds = %entry
  %not = xor i8 %2, -1
  %and = and i8 %call, %not
  call void @llvm.lifetime.start.p0(i64 1, ptr nonnull %ref.tmp.i7)
  store i8 %and, ptr %ref.tmp.i7, align 1
  call void @_ZN7openvdb5v11_06points19TypedAttributeArrayIhNS1_10GroupCodecEE3setEjRKh(ptr noundef nonnull align 8 dereferenceable(40) %1, i32 noundef %n, ptr noundef nonnull align 1 dereferenceable(1) %ref.tmp.i7)
  call void @llvm.lifetime.end.p0(i64 1, ptr nonnull %ref.tmp.i7)
  br label %if.end

if.end:                                           ; preds = %if.else, %if.then
  ret void
}